target datalayout = "e-m:e-p270:32:32-p271:32:32-p272:64:64-i64:64-i128:128-f80:128-n8:16:32:64-S128"
target triple = "x86_64-pc-linux-gnu"

%struct.List = type { i32, i32, i32, ptr, [0 x %union.ListCell] }
%union.ListCell = type { ptr }
%struct.FormData_pg_class = type { i32, %struct.nameData, i32, i32, i32, i32, i32, i32, i32, i32, float, i32, i32, i8, i8, i8, i8, i16, i16, i8, i8, i8, i8, i8, i8, i8, i8, i32, i32, i32 }
%struct.nameData = type { [64 x i8] }
%struct.RelationData = type { %struct.RelFileLocator, ptr, i32, i32, i8, i8, i8, i8, i8, i32, i32, i32, i32, ptr, ptr, i32, %struct.LockInfoData, ptr, ptr, ptr, ptr, ptr, i8, ptr, ptr, ptr, ptr, ptr, ptr, i32, ptr, i8, ptr, ptr, i32, i8, i32, ptr, i8, ptr, ptr, ptr, ptr, ptr, ptr, ptr, i32, ptr, ptr, ptr, ptr, ptr, ptr, ptr, ptr, ptr, ptr, ptr, ptr, ptr, ptr, ptr, ptr, ptr, ptr, ptr, i32, i8, ptr }
%struct.RelFileLocator = type { i32, i32, i32 }
%struct.LockInfoData = type { %struct.LockRelId }
%struct.LockRelId = type { i32, i32 }
%struct.PartitionKeyData = type { i32, i16, ptr, ptr, ptr, ptr, ptr, ptr, ptr, ptr, ptr, ptr, ptr, ptr }

; Function Attrs: inlinehint nounwind uwtable
define internal ptr @lnext(ptr noundef %0, ptr noundef %1) #5 {
  %3 = alloca ptr, align 8
  %4 = alloca ptr, align 8
  %5 = alloca ptr, align 8
  store ptr %0, ptr %4, align 8
  store ptr %1, ptr %5, align 8
  %6 = load ptr, ptr %5, align 8
  %7 = getelementptr inbounds nuw %union.ListCell, ptr %6, i32 1
  store ptr %7, ptr %5, align 8
  %8 = load ptr, ptr %5, align 8
  %9 = load ptr, ptr %4, align 8
  %10 = getelementptr inbounds nuw %struct.List, ptr %9, i32 0, i32 3
  %11 = load ptr, ptr %10, align 8
  %12 = load ptr, ptr %4, align 8
  %13 = getelementptr inbounds nuw %struct.List, ptr %12, i32 0, i32 1
  %14 = load i32, ptr %13, align 4
  %15 = sext i32 %14 to i64
  %16 = getelementptr inbounds %union.ListCell, ptr %11, i64 %15
  %17 = icmp ult ptr %8, %16
  br i1 %17, label %18, label %20

18:                                               ; preds = %2
  %19 = load ptr, ptr %5, align 8
  store ptr %19, ptr %3, align 8
  br label %21

20:                                               ; preds = %2
  store ptr null, ptr %3, align 8
  br label %21

21:                                               ; preds = %20, %18
  %22 = load ptr, ptr %3, align 8
  ret ptr %22
}

; Function Attrs: inlinehint nounwind uwtable
define internal signext i16 @get_partition_col_attnum(ptr noundef %0, i32 noundef %1) #5 {
  %3 = alloca ptr, align 8
  %4 = alloca i32, align 4
  store ptr %0, ptr %3, align 8
  store i32 %1, ptr %4, align 4
  %5 = load ptr, ptr %3, align 8
  %6 = getelementptr inbounds nuw %struct.PartitionKeyData, ptr %5, i32 0, i32 2
  %7 = load ptr, ptr %6, align 8
  %8 = load i32, ptr %4, align 4
  %9 = sext i32 %8 to i64
  %10 = getelementptr inbounds i16, ptr %7, i64 %9
  %11 = load i16, ptr %10, align 2
  ret i16 %11
}

; Function Attrs: inlinehint nounwind uwtable
define internal ptr @list_head(ptr noundef %0) #5 {
  %2 = alloca ptr, align 8
  store ptr %0, ptr %2, align 8
  %3 = load ptr, ptr %2, align 8
  %4 = icmp ne ptr %3, null
  br i1 %4, label %5, label %10

5:                                                ; preds = %1
  %6 = load ptr, ptr %2, align 8
  %7 = getelementptr inbounds nuw %struct.List, ptr %6, i32 0, i32 3
  %8 = load ptr, ptr %7, align 8
  %9 = getelementptr inbounds %union.ListCell, ptr %8, i64 0
  br label %11

10:                                               ; preds = %1
  br label %11

11:                                               ; preds = %10, %5
  %12 = phi ptr [ %9, %5 ], [ null, %10 ]
  ret ptr %12
}

; Function Attrs: inlinehint nounwind uwtable
define internal ptr @get_partition_exprs(ptr noundef %0) #5 {
  %2 = alloca ptr, align 8
  store ptr %0, ptr %2, align 8
  %3 = load ptr, ptr %2, align 8
  %4 = getelementptr inbounds nuw %struct.PartitionKeyData, ptr %3, i32 0, i32 3
  %5 = load ptr, ptr %4, align 8
  ret ptr %5
}

; Function Attrs: inlinehint nounwind uwtable
define internal i32 @get_partition_natts(ptr noundef %0) #5 {
  %2 = alloca ptr, align 8
  store ptr %0, ptr %2, align 8
  %3 = load ptr, ptr %2, align 8
  %4 = getelementptr inbounds nuw %struct.PartitionKeyData, ptr %3, i32 0, i32 1
  %5 = load i16, ptr %4, align 4
  %6 = sext i16 %5 to i32
  ret i32 %6
}

; Function Attrs: nounwind uwtable
define dso_local zeroext i1 @has_partition_attrs(ptr noundef %0, ptr noundef %1, ptr noundef %2) #0 {
  %4 = alloca i1, align 1
  %5 = alloca ptr, align 8
  %6 = alloca ptr, align 8
  %7 = alloca ptr, align 8
  %8 = alloca ptr, align 8
  %9 = alloca i32, align 4
  %10 = alloca ptr, align 8
  %11 = alloca ptr, align 8
  %12 = alloca i32, align 4
  %13 = alloca i32, align 4
  %14 = alloca i16, align 2
  %15 = alloca ptr, align 8
  %16 = alloca ptr, align 8
  store ptr %0, ptr %5, align 8
  store ptr %1, ptr %6, align 8
  store ptr %2, ptr %7, align 8
  call void @llvm.lifetime.start.p0(i64 8, ptr %8) #6
  call void @llvm.lifetime.start.p0(i64 4, ptr %9) #6
  call void @llvm.lifetime.start.p0(i64 8, ptr %10) #6
  call void @llvm.lifetime.start.p0(i64 8, ptr %11) #6
  call void @llvm.lifetime.start.p0(i64 4, ptr %12) #6
  %17 = load ptr, ptr %6, align 8
  %18 = icmp eq ptr %17, null
  br i1 %18, label %27, label %19

19:                                               ; preds = %3
  %20 = load ptr, ptr %5, align 8
  %21 = getelementptr inbounds nuw %struct.RelationData, ptr %20, i32 0, i32 13
  %22 = load ptr, ptr %21, align 8
  %23 = getelementptr inbounds nuw %struct.FormData_pg_class, ptr %22, i32 0, i32 16
  %24 = load i8, ptr %23, align 1
  %25 = sext i8 %24 to i32
  %26 = icmp ne i32 %25, 112
  br i1 %26, label %27, label %28

27:                                               ; preds = %19, %3
  store i1 false, ptr %4, align 1
  store i32 1, ptr %13, align 4
  br label %89

28:                                               ; preds = %19
  %29 = load ptr, ptr %5, align 8
  %30 = call ptr @RelationGetPartitionKey(ptr noundef %29)
  store ptr %30, ptr %8, align 8
  %31 = load ptr, ptr %8, align 8
  %32 = call i32 @get_partition_natts(ptr noundef %31)
  store i32 %32, ptr %9, align 4
  %33 = load ptr, ptr %8, align 8
  %34 = call ptr @get_partition_exprs(ptr noundef %33)
  store ptr %34, ptr %10, align 8
  %35 = load ptr, ptr %10, align 8
  %36 = call ptr @list_head(ptr noundef %35)
  store ptr %36, ptr %11, align 8
  store i32 0, ptr %12, align 4
  br label %37

37:                                               ; preds = %85, %28
  %38 = load i32, ptr %12, align 4
  %39 = load i32, ptr %9, align 4
  %40 = icmp slt i32 %38, %39
  br i1 %40, label %41, label %88

41:                                               ; preds = %37
  call void @llvm.lifetime.start.p0(i64 2, ptr %14) #6
  %42 = load ptr, ptr %8, align 8
  %43 = load i32, ptr %12, align 4
  %44 = call signext i16 @get_partition_col_attnum(ptr noundef %42, i32 noundef %43)
  store i16 %44, ptr %14, align 2
  %45 = load i16, ptr %14, align 2
  %46 = sext i16 %45 to i32
  %47 = icmp ne i32 %46, 0
  br i1 %47, label %48, label %61

48:                                               ; preds = %41
  %49 = load i16, ptr %14, align 2
  %50 = sext i16 %49 to i32
  %51 = sub i32 %50, -7
  %52 = load ptr, ptr %6, align 8
  %53 = call zeroext i1 @bms_is_member(i32 noundef %51, ptr noundef %52)
  br i1 %53, label %54, label %60

54:                                               ; preds = %48
  %55 = load ptr, ptr %7, align 8
  %56 = icmp ne ptr %55, null
  br i1 %56, label %57, label %59

57:                                               ; preds = %54
  %58 = load ptr, ptr %7, align 8
  store i8 0, ptr %58, align 1
  br label %59

59:                                               ; preds = %57, %54
  store i1 true, ptr %4, align 1
  store i32 1, ptr %13, align 4
  br label %82

60:                                               ; preds = %48
  br label %81

61:                                               ; preds = %41
  call void @llvm.lifetime.start.p0(i64 8, ptr %15) #6
  %62 = load ptr, ptr %11, align 8
  %63 = load ptr, ptr %62, align 8
  store ptr %63, ptr %15, align 8
  call void @llvm.lifetime.start.p0(i64 8, ptr %16) #6
  store ptr null, ptr %16, align 8
  %64 = load ptr, ptr %15, align 8
  call void @pull_varattnos(ptr noundef %64, i32 noundef 1, ptr noundef %16)
  %65 = load ptr, ptr %10, align 8
  %66 = load ptr, ptr %11, align 8
  %67 = call ptr @lnext(ptr noundef %65, ptr noundef %66)
  store ptr %67, ptr %11, align 8
  %68 = load ptr, ptr %6, align 8
  %69 = load ptr, ptr %16, align 8
  %70 = call zeroext i1 @bms_overlap(ptr noundef %68, ptr noundef %69)
  br i1 %70, label %71, label %77

71:                                               ; preds = %61
  %72 = load ptr, ptr %7, align 8
  %73 = icmp ne ptr %72, null
  br i1 %73, label %74, label %76

74:                                               ; preds = %71
  %75 = load ptr, ptr %7, align 8
  store i8 1, ptr %75, align 1
  br label %76

76:                                               ; preds = %74, %71
  store i1 true, ptr %4, align 1
  store i32 1, ptr %13, align 4
  br label %78

77:                                               ; preds = %61
  store i32 0, ptr %13, align 4
  br label %78

78:                                               ; preds = %77, %76
  call void @llvm.lifetime.end.p0(i64 8, ptr %16) #6
  call void @llvm.lifetime.end.p0(i64 8, ptr %15) #6
  %79 = load i32, ptr %13, align 4
  switch i32 %79, label %82 [
    i32 0, label %80
  ]

80:                                               ; preds = %78
  br label %81

81:                                               ; preds = %80, %60
  store i32 0, ptr %13, align 4
  br label %82

82:                                               ; preds = %81, %78, %59
  call void @llvm.lifetime.end.p0(i64 2, ptr %14) #6
  %83 = load i32, ptr %13, align 4
  switch i32 %83, label %89 [
    i32 0, label %84
  ]

84:                                               ; preds = %82
  br label %85

85:                                               ; preds = %84
  %86 = load i32, ptr %12, align 4
  %87 = add i32 %86, 1
  store i32 %87, ptr %12, align 4
  br label %37, !llvm.loop !8

88:                                               ; preds = %37
  store i1 false, ptr %4, align 1
  store i32 1, ptr %13, align 4
  br label %89

89:                                               ; preds = %88, %82, %27
  call void @llvm.lifetime.end.p0(i64 4, ptr %12) #6
  call void @llvm.lifetime.end.p0(i64 8, ptr %11) #6
  call void @llvm.lifetime.end.p0(i64 8, ptr %10) #6
  call void @llvm.lifetime.end.p0(i64 4, ptr %9) #6
  call void @llvm.lifetime.end.p0(i64 8, ptr %8) #6
  %90 = load i1, ptr %4, align 1
  ret i1 %90
}